; Function Attrs: mustprogress uwtable
define internal noundef zeroext i1 @_ZNK8facebook5velox4exec12_GLOBAL__N_112ExprCallable10hasCaptureEv(ptr nocapture noundef nonnull readonly align 8 dereferenceable(56) %this) unnamed_addr #0 align 2 {
entry:
  %capture_ = getelementptr inbounds i8, ptr %this, i64 24
  %0 = load ptr, ptr %capture_, align 8
  %childrenSize_.i = getelementptr inbounds i8, ptr %0, i64 104
  %1 = load i64, ptr %childrenSize_.i, align 8
  %signature_ = getelementptr inbounds i8, ptr %this, i64 8
  %2 = load ptr, ptr %signature_, align 8
  %vtable = load ptr, ptr %2, align 8
  %vfn = getelementptr inbounds i8, ptr %vtable, i64 16
  %3 = load ptr, ptr %vfn, align 8
  %call4 = tail call noundef i32 %3(ptr noundef nonnull align 8 dereferenceable(120) %2)
  %conv = zext i32 %call4 to i64
  %cmp = icmp ugt i64 %1, %conv
  ret i1 %cmp
}